target datalayout = "e-m:e-p270:32:32-p271:32:32-p272:64:64-i64:64-i128:128-f80:128-n8:16:32:64-S128"
target triple = "x86_64-pc-linux-gnu"

%struct.timeval = type { i64, i64 }
%struct.group = type { ptr, ptr, i32, ptr }

@.str = private unnamed_addr constant [6 x i8] c"uid.c\00", align 1
@__func__.gid_from_string = private unnamed_addr constant [16 x i8] c"gid_from_string\00", align 1
@.str.11 = private unnamed_addr constant [36 x i8] c"%s: getgrnam_r(%s): no record found\00", align 1
@.str.12 = private unnamed_addr constant [23 x i8] c"%s: getgrnam_r(%s): %s\00", align 1
@.str.13 = private unnamed_addr constant [11 x i8] c"getgrnam_r\00", align 1
@.str.14 = private unnamed_addr constant [37 x i8] c"%s: getgrgid_r(%ld): no record found\00", align 1
@.str.15 = private unnamed_addr constant [24 x i8] c"%s: getgrgid_r(%ld): %s\00", align 1
@.str.16 = private unnamed_addr constant [11 x i8] c"getgrgid_r\00", align 1

; Function Attrs: nounwind uwtable
define dso_local i32 @gid_from_string(ptr noundef %0, ptr noundef %1) #0 {
  %3 = alloca i32, align 4
  %4 = alloca ptr, align 8
  %5 = alloca ptr, align 8
  %6 = alloca %struct.timeval, align 8
  %7 = alloca %struct.timeval, align 8
  %8 = alloca [20 x i8], align 16
  %9 = alloca i64, align 8
  %10 = alloca %struct.group, align 8
  %11 = alloca ptr, align 8
  %12 = alloca [65536 x i8], align 16
  %13 = alloca ptr, align 8
  %14 = alloca ptr, align 8
  %15 = alloca i64, align 8
  %16 = alloca ptr, align 8
  %17 = alloca i64, align 8
  %18 = alloca i32, align 4
  %19 = alloca i32, align 4
  %20 = alloca i32, align 4
  store ptr %0, ptr %4, align 8
  store ptr %1, ptr %5, align 8
  call void @llvm.lifetime.start.p0(i64 16, ptr %6) #9
  call void @llvm.lifetime.start.p0(i64 16, ptr %7) #9
  call void @llvm.lifetime.start.p0(i64 20, ptr %8) #9
  call void @llvm.memset.p0.i64(ptr align 16 %8, i8 0, i64 20, i1 false)
  call void @llvm.lifetime.start.p0(i64 8, ptr %9) #9
  call void @llvm.lifetime.start.p0(i64 32, ptr %10) #9
  call void @llvm.lifetime.start.p0(i64 8, ptr %11) #9
  store ptr null, ptr %11, align 8
  call void @llvm.lifetime.start.p0(i64 65536, ptr %12) #9
  call void @llvm.lifetime.start.p0(i64 8, ptr %13) #9
  store ptr null, ptr %13, align 8
  call void @llvm.lifetime.start.p0(i64 8, ptr %14) #9
  %21 = getelementptr inbounds [65536 x i8], ptr %12, i64 0, i64 0
  store ptr %21, ptr %14, align 8
  call void @llvm.lifetime.start.p0(i64 8, ptr %15) #9
  store i64 65536, ptr %15, align 8
  call void @llvm.lifetime.start.p0(i64 8, ptr %16) #9
  store ptr null, ptr %16, align 8
  call void @llvm.lifetime.start.p0(i64 8, ptr %17) #9
  %22 = load ptr, ptr %4, align 8
  %23 = icmp ne ptr %22, null
  br i1 %23, label %25, label %24

24:                                               ; preds = %2
  store i32 -1, ptr %3, align 4
  store i32 1, ptr %18, align 4
  br label %207

25:                                               ; preds = %2
  %26 = call i32 @gettimeofday(ptr noundef %6, ptr noundef null) #9
  br label %27

27:                                               ; preds = %86, %25
  br label %28

28:                                               ; preds = %27
  call void @llvm.lifetime.start.p0(i64 4, ptr %19) #9
  %29 = load ptr, ptr %4, align 8
  %30 = load ptr, ptr %14, align 8
  %31 = load i64, ptr %15, align 8
  %32 = call i32 @getgrnam_r(ptr noundef %29, ptr noundef %10, ptr noundef %30, i64 noundef %31, ptr noundef %11)
  store i32 %32, ptr %19, align 4
  %33 = load i32, ptr %19, align 4
  %34 = icmp ne i32 %33, 0
  br i1 %34, label %39, label %35

35:                                               ; preds = %28
  %36 = load ptr, ptr %11, align 8
  %37 = icmp ne ptr %36, null
  br i1 %37, label %38, label %39

38:                                               ; preds = %35
  store i32 3, ptr %18, align 4
  br label %86

39:                                               ; preds = %35, %28
  %40 = load i32, ptr %19, align 4
  %41 = icmp eq i32 %40, 4
  br i1 %41, label %42, label %43

42:                                               ; preds = %39
  store i32 2, ptr %18, align 4
  br label %86, !llvm.loop !14

43:                                               ; preds = %39
  %44 = load i32, ptr %19, align 4
  %45 = icmp eq i32 %44, 34
  br i1 %45, label %46, label %51

46:                                               ; preds = %43
  %47 = load i64, ptr %15, align 8
  %48 = mul i64 %47, 2
  store i64 %48, ptr %15, align 8
  %49 = load i64, ptr %15, align 8
  %50 = call ptr @slurm_xrecalloc(ptr noundef %13, i64 noundef 1, i64 noundef %49, i1 noundef zeroext true, i1 noundef zeroext false, ptr noundef @.str, i32 noundef 328, ptr noundef @__func__.gid_from_string)
  store ptr %50, ptr %14, align 8
  store i32 2, ptr %18, align 4
  br label %86, !llvm.loop !14

51:                                               ; preds = %43
  %52 = load i32, ptr %19, align 4
  %53 = icmp eq i32 %52, 0
  br i1 %53, label %66, label %54

54:                                               ; preds = %51
  %55 = load i32, ptr %19, align 4
  %56 = icmp eq i32 %55, 2
  br i1 %56, label %66, label %57

57:                                               ; preds = %54
  %58 = load i32, ptr %19, align 4
  %59 = icmp eq i32 %58, 3
  br i1 %59, label %66, label %60

60:                                               ; preds = %57
  %61 = load i32, ptr %19, align 4
  %62 = icmp eq i32 %61, 9
  br i1 %62, label %66, label %63

63:                                               ; preds = %60
  %64 = load i32, ptr %19, align 4
  %65 = icmp eq i32 %64, 1
  br i1 %65, label %66, label %78

66:                                               ; preds = %63, %60, %57, %54, %51
  br label %67

67:                                               ; preds = %66
  br label %68

68:                                               ; preds = %67
  %69 = call i32 @get_log_level()
  %70 = icmp sge i32 %69, 6
  br i1 %70, label %71, label %73

71:                                               ; preds = %68
  %72 = load ptr, ptr %4, align 8
  call void (i32, ptr, ...) @log_var(i32 noundef 6, ptr noundef @.str.11, ptr noundef @__func__.gid_from_string, ptr noundef %72)
  br label %73

73:                                               ; preds = %71, %68
  br label %74

74:                                               ; preds = %73
  br label %75

75:                                               ; preds = %74
  br label %76

76:                                               ; preds = %75
  br label %77

77:                                               ; preds = %76
  br label %83

78:                                               ; preds = %63
  %79 = load ptr, ptr %4, align 8
  %80 = load i32, ptr %19, align 4
  %81 = call ptr @slurm_strerror(i32 noundef %80)
  %82 = call i32 (ptr, ...) @error(ptr noundef @.str.12, ptr noundef @__func__.gid_from_string, ptr noundef %79, ptr noundef %81)
  br label %83

83:                                               ; preds = %78, %77
  br label %84

84:                                               ; preds = %83
  br label %85

85:                                               ; preds = %84
  store ptr null, ptr %11, align 8
  store i32 3, ptr %18, align 4
  br label %86

86:                                               ; preds = %85, %46, %42, %38
  call void @llvm.lifetime.end.p0(i64 4, ptr %19) #9
  %87 = load i32, ptr %18, align 4
  switch i32 %87, label %209 [
    i32 3, label %88
    i32 2, label %27
  ]

88:                                               ; preds = %86
  br label %89

89:                                               ; preds = %88
  %90 = call i32 @gettimeofday(ptr noundef %7, ptr noundef null) #9
  %91 = getelementptr inbounds [20 x i8], ptr %8, i64 0, i64 0
  call void @slurm_diff_tv_str(ptr noundef %6, ptr noundef %7, ptr noundef %91, i32 noundef 20, ptr noundef @.str.13, i64 noundef 0, ptr noundef %9)
  br label %92

92:                                               ; preds = %89
  br label %93

93:                                               ; preds = %92
  %94 = load ptr, ptr %11, align 8
  %95 = icmp ne ptr %94, null
  br i1 %95, label %96, label %101

96:                                               ; preds = %93
  %97 = load ptr, ptr %11, align 8
  %98 = getelementptr inbounds nuw %struct.group, ptr %97, i32 0, i32 2
  %99 = load i32, ptr %98, align 8
  %100 = load ptr, ptr %5, align 8
  store i32 %99, ptr %100, align 4
  call void @slurm_xfree(ptr noundef %13)
  store i32 0, ptr %3, align 4
  store i32 1, ptr %18, align 4
  br label %207

101:                                              ; preds = %93
  %102 = call ptr @__errno_location() #10
  store i32 0, ptr %102, align 4
  %103 = load ptr, ptr %4, align 8
  %104 = call i64 @strtol(ptr noundef %103, ptr noundef %16, i32 noundef 10) #9
  store i64 %104, ptr %17, align 8
  %105 = call ptr @__errno_location() #10
  %106 = load i32, ptr %105, align 4
  %107 = icmp eq i32 %106, 34
  br i1 %107, label %108, label %114

108:                                              ; preds = %101
  %109 = load i64, ptr %17, align 8
  %110 = icmp eq i64 %109, -9223372036854775808
  br i1 %110, label %129, label %111

111:                                              ; preds = %108
  %112 = load i64, ptr %17, align 8
  %113 = icmp eq i64 %112, 9223372036854775807
  br i1 %113, label %129, label %114

114:                                              ; preds = %111, %101
  %115 = load ptr, ptr %4, align 8
  %116 = load ptr, ptr %16, align 8
  %117 = icmp eq ptr %115, %116
  br i1 %117, label %129, label %118

118:                                              ; preds = %114
  %119 = load ptr, ptr %16, align 8
  %120 = load i8, ptr %119, align 1
  %121 = sext i8 %120 to i32
  %122 = icmp ne i32 %121, 0
  br i1 %122, label %129, label %123

123:                                              ; preds = %118
  %124 = load i64, ptr %17, align 8
  %125 = icmp slt i64 %124, 0
  br i1 %125, label %129, label %126

126:                                              ; preds = %123
  %127 = load i64, ptr %17, align 8
  %128 = icmp sgt i64 %127, 2147483647
  br i1 %128, label %129, label %130

129:                                              ; preds = %126, %123, %118, %114, %111, %108
  call void @slurm_xfree(ptr noundef %13)
  store i32 -1, ptr %3, align 4
  store i32 1, ptr %18, align 4
  br label %207

130:                                              ; preds = %126
  %131 = call i32 @gettimeofday(ptr noundef %6, ptr noundef null) #9
  br label %132

132:                                              ; preds = %192, %130
  br label %133

133:                                              ; preds = %132
  call void @llvm.lifetime.start.p0(i64 4, ptr %20) #9
  %134 = load i64, ptr %17, align 8
  %135 = trunc i64 %134 to i32
  %136 = load ptr, ptr %14, align 8
  %137 = load i64, ptr %15, align 8
  %138 = call i32 @getgrgid_r(i32 noundef %135, ptr noundef %10, ptr noundef %136, i64 noundef %137, ptr noundef %11)
  store i32 %138, ptr %20, align 4
  %139 = load i32, ptr %20, align 4
  %140 = icmp ne i32 %139, 0
  br i1 %140, label %145, label %141

141:                                              ; preds = %133
  %142 = load ptr, ptr %11, align 8
  %143 = icmp ne ptr %142, null
  br i1 %143, label %144, label %145

144:                                              ; preds = %141
  store i32 11, ptr %18, align 4
  br label %192

145:                                              ; preds = %141, %133
  %146 = load i32, ptr %20, align 4
  %147 = icmp eq i32 %146, 4
  br i1 %147, label %148, label %149

148:                                              ; preds = %145
  store i32 10, ptr %18, align 4
  br label %192, !llvm.loop !15

149:                                              ; preds = %145
  %150 = load i32, ptr %20, align 4
  %151 = icmp eq i32 %150, 34
  br i1 %151, label %152, label %157

152:                                              ; preds = %149
  %153 = load i64, ptr %15, align 8
  %154 = mul i64 %153, 2
  store i64 %154, ptr %15, align 8
  %155 = load i64, ptr %15, align 8
  %156 = call ptr @slurm_xrecalloc(ptr noundef %13, i64 noundef 1, i64 noundef %155, i1 noundef zeroext true, i1 noundef zeroext false, ptr noundef @.str, i32 noundef 372, ptr noundef @__func__.gid_from_string)
  store ptr %156, ptr %14, align 8
  store i32 10, ptr %18, align 4
  br label %192, !llvm.loop !15

157:                                              ; preds = %149
  %158 = load i32, ptr %20, align 4
  %159 = icmp eq i32 %158, 0
  br i1 %159, label %172, label %160

160:                                              ; preds = %157
  %161 = load i32, ptr %20, align 4
  %162 = icmp eq i32 %161, 2
  br i1 %162, label %172, label %163

163:                                              ; preds = %160
  %164 = load i32, ptr %20, align 4
  %165 = icmp eq i32 %164, 3
  br i1 %165, label %172, label %166

166:                                              ; preds = %163
  %167 = load i32, ptr %20, align 4
  %168 = icmp eq i32 %167, 9
  br i1 %168, label %172, label %169

169:                                              ; preds = %166
  %170 = load i32, ptr %20, align 4
  %171 = icmp eq i32 %170, 1
  br i1 %171, label %172, label %184

172:                                              ; preds = %169, %166, %163, %160, %157
  br label %173

173:                                              ; preds = %172
  br label %174

174:                                              ; preds = %173
  %175 = call i32 @get_log_level()
  %176 = icmp sge i32 %175, 6
  br i1 %176, label %177, label %179

177:                                              ; preds = %174
  %178 = load i64, ptr %17, align 8
  call void (i32, ptr, ...) @log_var(i32 noundef 6, ptr noundef @.str.14, ptr noundef @__func__.gid_from_string, i64 noundef %178)
  br label %179

179:                                              ; preds = %177, %174
  br label %180

180:                                              ; preds = %179
  br label %181

181:                                              ; preds = %180
  br label %182

182:                                              ; preds = %181
  br label %183

183:                                              ; preds = %182
  br label %189

184:                                              ; preds = %169
  %185 = load i64, ptr %17, align 8
  %186 = load i32, ptr %20, align 4
  %187 = call ptr @slurm_strerror(i32 noundef %186)
  %188 = call i32 (ptr, ...) @error(ptr noundef @.str.15, ptr noundef @__func__.gid_from_string, i64 noundef %185, ptr noundef %187)
  br label %189

189:                                              ; preds = %184, %183
  br label %190

190:                                              ; preds = %189
  br label %191

191:                                              ; preds = %190
  store ptr null, ptr %11, align 8
  store i32 11, ptr %18, align 4
  br label %192

192:                                              ; preds = %191, %152, %148, %144
  call void @llvm.lifetime.end.p0(i64 4, ptr %20) #9
  %193 = load i32, ptr %18, align 4
  switch i32 %193, label %209 [
    i32 11, label %194
    i32 10, label %132
  ]

194:                                              ; preds = %192
  br label %195

195:                                              ; preds = %194
  %196 = call i32 @gettimeofday(ptr noundef %7, ptr noundef null) #9
  %197 = getelementptr inbounds [20 x i8], ptr %8, i64 0, i64 0
  call void @slurm_diff_tv_str(ptr noundef %6, ptr noundef %7, ptr noundef %197, i32 noundef 20, ptr noundef @.str.16, i64 noundef 0, ptr noundef %9)
  br label %198

198:                                              ; preds = %195
  br label %199

199:                                              ; preds = %198
  call void @slurm_xfree(ptr noundef %13)
  %200 = load ptr, ptr %11, align 8
  %201 = icmp ne ptr %200, null
  br i1 %201, label %203, label %202

202:                                              ; preds = %199
  store i32 -1, ptr %3, align 4
  store i32 1, ptr %18, align 4
  br label %207

203:                                              ; preds = %199
  %204 = load i64, ptr %17, align 8
  %205 = trunc i64 %204 to i32
  %206 = load ptr, ptr %5, align 8
  store i32 %205, ptr %206, align 4
  store i32 0, ptr %3, align 4
  store i32 1, ptr %18, align 4
  br label %207

207:                                              ; preds = %203, %202, %129, %96, %24
  call void @llvm.lifetime.end.p0(i64 8, ptr %17) #9
  call void @llvm.lifetime.end.p0(i64 8, ptr %16) #9
  call void @llvm.lifetime.end.p0(i64 8, ptr %15) #9
  call void @llvm.lifetime.end.p0(i64 8, ptr %14) #9
  call void @llvm.lifetime.end.p0(i64 8, ptr %13) #9
  call void @llvm.lifetime.end.p0(i64 65536, ptr %12) #9
  call void @llvm.lifetime.end.p0(i64 8, ptr %11) #9
  call void @llvm.lifetime.end.p0(i64 32, ptr %10) #9
  call void @llvm.lifetime.end.p0(i64 8, ptr %9) #9
  call void @llvm.lifetime.end.p0(i64 20, ptr %8) #9
  call void @llvm.lifetime.end.p0(i64 16, ptr %7) #9
  call void @llvm.lifetime.end.p0(i64 16, ptr %6) #9
  %208 = load i32, ptr %3, align 4
  ret i32 %208

209:                                              ; preds = %192, %86
  unreachable
}