; Function Attrs: nounwind uwtable
define dso_local range(i32 -1, 1) i32 @gid_from_string(ptr noundef %0, ptr noundef writeonly captures(none) %1) local_unnamed_addr #0 {
  %3 = alloca %struct.timeval, align 8
  %4 = alloca %struct.timeval, align 8
  %5 = alloca [20 x i8], align 16
  %6 = alloca i64, align 8
  %7 = alloca %struct.group, align 8
  %8 = alloca ptr, align 8
  %9 = alloca [65536 x i8], align 16
  %10 = alloca ptr, align 8
  %11 = alloca ptr, align 8
  call void @llvm.lifetime.start.p0(i64 16, ptr nonnull %3) #10
  call void @llvm.lifetime.start.p0(i64 16, ptr nonnull %4) #10
  call void @llvm.lifetime.start.p0(i64 20, ptr nonnull %5) #10
  call void @llvm.memset.p0.i64(ptr noundef nonnull align 16 dereferenceable(20) %5, i8 0, i64 20, i1 false)
  call void @llvm.lifetime.start.p0(i64 8, ptr nonnull %6) #10
  call void @llvm.lifetime.start.p0(i64 32, ptr nonnull %7) #10
  call void @llvm.lifetime.start.p0(i64 8, ptr nonnull %8) #10
  store ptr null, ptr %8, align 8
  call void @llvm.lifetime.start.p0(i64 65536, ptr nonnull %9) #10
  call void @llvm.lifetime.start.p0(i64 8, ptr nonnull %10) #10
  store ptr null, ptr %10, align 8
  call void @llvm.lifetime.start.p0(i64 8, ptr nonnull %11) #10
  store ptr null, ptr %11, align 8
  %.not = icmp eq ptr %0, null
  br i1 %.not, label %81, label %12

12:                                               ; preds = %2
  %13 = call i32 @gettimeofday(ptr noundef nonnull %3, ptr noundef null) #10
  %14 = call i32 @getgrnam_r(ptr noundef nonnull %0, ptr noundef nonnull %7, ptr noundef nonnull %9, i64 noundef 65536, ptr noundef nonnull %8) #10
  %15 = icmp eq i32 %14, 0
  %16 = load ptr, ptr %8, align 8
  %17 = icmp ne ptr %16, null
  %or.cond117 = select i1 %15, i1 %17, i1 false
  br i1 %or.cond117, label %.loopexit101, label %.lr.ph

.lr.ph:                                           ; preds = %12, %30
  %18 = phi i32 [ %31, %30 ], [ %14, %12 ]
  %.069119 = phi ptr [ %.1, %30 ], [ %9, %12 ]
  %.072118 = phi i64 [ %.173, %30 ], [ 65536, %12 ]
  switch i32 %18, label %26 [
    i32 4, label %30
    i32 34, label %19
    i32 9, label %22
    i32 3, label %22
    i32 2, label %22
    i32 1, label %22
    i32 0, label %22
  ]

19:                                               ; preds = %.lr.ph
  %20 = shl i64 %.072118, 1
  %21 = call ptr @slurm_xrecalloc(ptr noundef nonnull %10, i64 noundef 1, i64 noundef %20, i1 noundef zeroext true, i1 noundef zeroext false, ptr noundef nonnull @.str, i32 noundef 328, ptr noundef nonnull @__func__.gid_from_string) #10
  br label %30, !llvm.loop !14

22:                                               ; preds = %.lr.ph, %.lr.ph, %.lr.ph, %.lr.ph, %.lr.ph
  %23 = call i32 @get_log_level() #10
  %24 = icmp sgt i32 %23, 5
  br i1 %24, label %25, label %29

25:                                               ; preds = %22
  call void (i32, ptr, ...) @log_var(i32 noundef 6, ptr noundef nonnull @.str.11, ptr noundef nonnull @__func__.gid_from_string, ptr noundef nonnull %0) #10
  br label %29

26:                                               ; preds = %.lr.ph
  %27 = call ptr @slurm_strerror(i32 noundef %18) #10
  %28 = call i32 (ptr, ...) @error(ptr noundef nonnull @.str.12, ptr noundef nonnull @__func__.gid_from_string, ptr noundef nonnull %0, ptr noundef %27) #10
  br label %29

29:                                               ; preds = %22, %25, %26
  store ptr null, ptr %8, align 8
  br label %.loopexit101

30:                                               ; preds = %.lr.ph, %19
  %.173 = phi i64 [ %20, %19 ], [ %.072118, %.lr.ph ]
  %.1 = phi ptr [ %21, %19 ], [ %.069119, %.lr.ph ]
  %31 = call i32 @getgrnam_r(ptr noundef nonnull %0, ptr noundef nonnull %7, ptr noundef %.1, i64 noundef %.173, ptr noundef nonnull %8) #10
  %32 = icmp eq i32 %31, 0
  %33 = load ptr, ptr %8, align 8
  %34 = icmp ne ptr %33, null
  %or.cond = select i1 %32, i1 %34, i1 false
  br i1 %or.cond, label %.loopexit101, label %.lr.ph

.loopexit101:                                     ; preds = %30, %12, %29
  %.072115 = phi i64 [ %.072118, %29 ], [ 65536, %12 ], [ %.173, %30 ]
  %.069111 = phi ptr [ %.069119, %29 ], [ %9, %12 ], [ %.1, %30 ]
  %35 = call i32 @gettimeofday(ptr noundef nonnull %4, ptr noundef null) #10
  call void @slurm_diff_tv_str(ptr noundef nonnull %3, ptr noundef nonnull %4, ptr noundef nonnull %5, i32 noundef 20, ptr noundef nonnull @.str.13, i64 noundef 0, ptr noundef nonnull %6) #10
  %36 = load ptr, ptr %8, align 8
  %.not82 = icmp eq ptr %36, null
  br i1 %.not82, label %40, label %37

37:                                               ; preds = %.loopexit101
  %38 = getelementptr inbounds nuw i8, ptr %36, i64 16
  %39 = load i32, ptr %38, align 8
  store i32 %39, ptr %1, align 4
  call void @slurm_xfree(ptr noundef nonnull %10) #10
  br label %81

40:                                               ; preds = %.loopexit101
  %41 = tail call ptr @__errno_location() #11
  store i32 0, ptr %41, align 4
  %42 = call i64 @strtol(ptr noundef nonnull %0, ptr noundef nonnull %11, i32 noundef 10) #10
  %43 = load i32, ptr %41, align 4
  %44 = icmp eq i32 %43, 34
  %45 = add i64 %42, -9223372036854775807
  %or.cond11 = icmp ult i64 %45, 2
  %or.cond84 = select i1 %44, i1 %or.cond11, i1 false
  br i1 %or.cond84, label %53, label %46

46:                                               ; preds = %40
  %47 = load ptr, ptr %11, align 8
  %48 = icmp eq ptr %0, %47
  br i1 %48, label %53, label %49

49:                                               ; preds = %46
  %50 = load i8, ptr %47, align 1
  %51 = icmp ne i8 %50, 0
  %52 = icmp ugt i64 %42, 2147483647
  %or.cond15 = select i1 %51, i1 true, i1 %52
  br i1 %or.cond15, label %53, label %54

53:                                               ; preds = %40, %49, %46
  call void @slurm_xfree(ptr noundef nonnull %10) #10
  br label %81

54:                                               ; preds = %49
  %55 = call i32 @gettimeofday(ptr noundef nonnull %3, ptr noundef null) #10
  %56 = trunc nuw nsw i64 %42 to i32
  %57 = call i32 @getgrgid_r(i32 noundef %56, ptr noundef nonnull %7, ptr noundef %.069111, i64 noundef %.072115, ptr noundef nonnull %8) #10
  %58 = icmp eq i32 %57, 0
  %59 = load ptr, ptr %8, align 8
  %60 = icmp ne ptr %59, null
  %or.cond17121 = select i1 %58, i1 %60, i1 false
  br i1 %or.cond17121, label %.loopexit, label %.lr.ph124

.lr.ph124:                                        ; preds = %54, %73
  %61 = phi i32 [ %74, %73 ], [ %57, %54 ]
  %.2123 = phi ptr [ %.3, %73 ], [ %.069111, %54 ]
  %.274122 = phi i64 [ %.375, %73 ], [ %.072115, %54 ]
  switch i32 %61, label %69 [
    i32 4, label %73
    i32 34, label %62
    i32 9, label %65
    i32 3, label %65
    i32 2, label %65
    i32 1, label %65
    i32 0, label %65
  ]

62:                                               ; preds = %.lr.ph124
  %63 = shl i64 %.274122, 1
  %64 = call ptr @slurm_xrecalloc(ptr noundef nonnull %10, i64 noundef 1, i64 noundef %63, i1 noundef zeroext true, i1 noundef zeroext false, ptr noundef nonnull @.str, i32 noundef 372, ptr noundef nonnull @__func__.gid_from_string) #10
  br label %73, !llvm.loop !15

65:                                               ; preds = %.lr.ph124, %.lr.ph124, %.lr.ph124, %.lr.ph124, %.lr.ph124
  %66 = call i32 @get_log_level() #10
  %67 = icmp sgt i32 %66, 5
  br i1 %67, label %68, label %72

68:                                               ; preds = %65
  call void (i32, ptr, ...) @log_var(i32 noundef 6, ptr noundef nonnull @.str.14, ptr noundef nonnull @__func__.gid_from_string, i64 noundef %42) #10
  br label %72

69:                                               ; preds = %.lr.ph124
  %70 = call ptr @slurm_strerror(i32 noundef %61) #10
  %71 = call i32 (ptr, ...) @error(ptr noundef nonnull @.str.15, ptr noundef nonnull @__func__.gid_from_string, i64 noundef %42, ptr noundef %70) #10
  br label %72

72:                                               ; preds = %65, %68, %69
  store ptr null, ptr %8, align 8
  br label %.loopexit

73:                                               ; preds = %.lr.ph124, %62
  %.375 = phi i64 [ %63, %62 ], [ %.274122, %.lr.ph124 ]
  %.3 = phi ptr [ %64, %62 ], [ %.2123, %.lr.ph124 ]
  %74 = call i32 @getgrgid_r(i32 noundef %56, ptr noundef nonnull %7, ptr noundef %.3, i64 noundef %.375, ptr noundef nonnull %8) #10
  %75 = icmp eq i32 %74, 0
  %76 = load ptr, ptr %8, align 8
  %77 = icmp ne ptr %76, null
  %or.cond17 = select i1 %75, i1 %77, i1 false
  br i1 %or.cond17, label %.loopexit, label %.lr.ph124

.loopexit:                                        ; preds = %73, %54, %72
  %78 = call i32 @gettimeofday(ptr noundef nonnull %4, ptr noundef null) #10
  call void @slurm_diff_tv_str(ptr noundef nonnull %3, ptr noundef nonnull %4, ptr noundef nonnull %5, i32 noundef 20, ptr noundef nonnull @.str.16, i64 noundef 0, ptr noundef nonnull %6) #10
  call void @slurm_xfree(ptr noundef nonnull %10) #10
  %79 = load ptr, ptr %8, align 8
  %.not83 = icmp eq ptr %79, null
  br i1 %.not83, label %81, label %80

80:                                               ; preds = %.loopexit
  store i32 %56, ptr %1, align 4
  br label %81

81:                                               ; preds = %.loopexit, %2, %80, %53, %37
  %.0 = phi i32 [ 0, %37 ], [ -1, %53 ], [ 0, %80 ], [ -1, %2 ], [ -1, %.loopexit ]
  call void @llvm.lifetime.end.p0(i64 8, ptr nonnull %11) #10
  call void @llvm.lifetime.end.p0(i64 8, ptr nonnull %10) #10
  call void @llvm.lifetime.end.p0(i64 65536, ptr nonnull %9) #10
  call void @llvm.lifetime.end.p0(i64 8, ptr nonnull %8) #10
  call void @llvm.lifetime.end.p0(i64 32, ptr nonnull %7) #10
  call void @llvm.lifetime.end.p0(i64 8, ptr nonnull %6) #10
  call void @llvm.lifetime.end.p0(i64 20, ptr nonnull %5) #10
  call void @llvm.lifetime.end.p0(i64 16, ptr nonnull %4) #10
  call void @llvm.lifetime.end.p0(i64 16, ptr nonnull %3) #10
  ret i32 %.0
}